target datalayout = "e-m:e-p270:32:32-p271:32:32-p272:64:64-i64:64-i128:128-f80:128-n8:16:32:64-S128"
target triple = "x86_64-pc-linux-gnu"

%struct.color_node = type { %struct.color_info, i8, i32, i32, i32 }
%struct.color_info = type { i32, [3 x i32] }
%struct.nearest_color = type { i32, i64 }

; Function Attrs: alwaysinline nounwind uwtable
define internal i32 @diff(ptr noundef %0, ptr noundef %1, i32 noundef %2) #9 {
  %4 = alloca i32, align 4
  %5 = alloca ptr, align 8
  %6 = alloca ptr, align 8
  %7 = alloca i32, align 4
  %8 = alloca i8, align 1
  %9 = alloca i8, align 1
  %10 = alloca i32, align 4
  %11 = alloca i64, align 8
  %12 = alloca i64, align 8
  %13 = alloca i64, align 8
  %14 = alloca i64, align 8
  store ptr %0, ptr %5, align 8, !tbaa !154
  store ptr %1, ptr %6, align 8, !tbaa !154
  store i32 %2, ptr %7, align 4, !tbaa !36
  call void @llvm.lifetime.start.p0(i64 1, ptr %8) #11
  %15 = load ptr, ptr %5, align 8, !tbaa !154
  %16 = getelementptr inbounds nuw %struct.color_info, ptr %15, i32 0, i32 0
  %17 = load i32, ptr %16, align 4, !tbaa !126
  %18 = lshr i32 %17, 24
  %19 = trunc i32 %18 to i8
  store i8 %19, ptr %8, align 1, !tbaa !89
  call void @llvm.lifetime.start.p0(i64 1, ptr %9) #11
  %20 = load ptr, ptr %6, align 8, !tbaa !154
  %21 = getelementptr inbounds nuw %struct.color_info, ptr %20, i32 0, i32 0
  %22 = load i32, ptr %21, align 4, !tbaa !126
  %23 = lshr i32 %22, 24
  %24 = trunc i32 %23 to i8
  store i8 %24, ptr %9, align 1, !tbaa !89
  %25 = load i8, ptr %8, align 1, !tbaa !89
  %26 = zext i8 %25 to i32
  %27 = load i32, ptr %7, align 4, !tbaa !36
  %28 = icmp slt i32 %26, %27
  br i1 %28, label %29, label %35

29:                                               ; preds = %3
  %30 = load i8, ptr %9, align 1, !tbaa !89
  %31 = zext i8 %30 to i32
  %32 = load i32, ptr %7, align 4, !tbaa !36
  %33 = icmp slt i32 %31, %32
  br i1 %33, label %34, label %35

34:                                               ; preds = %29
  store i32 0, ptr %4, align 4
  store i32 1, ptr %10, align 4
  br label %96

35:                                               ; preds = %29, %3
  %36 = load i8, ptr %8, align 1, !tbaa !89
  %37 = zext i8 %36 to i32
  %38 = load i32, ptr %7, align 4, !tbaa !36
  %39 = icmp sge i32 %37, %38
  br i1 %39, label %40, label %95

40:                                               ; preds = %35
  %41 = load i8, ptr %9, align 1, !tbaa !89
  %42 = zext i8 %41 to i32
  %43 = load i32, ptr %7, align 4, !tbaa !36
  %44 = icmp sge i32 %42, %43
  br i1 %44, label %45, label %95

45:                                               ; preds = %40
  call void @llvm.lifetime.start.p0(i64 8, ptr %11) #11
  %46 = load ptr, ptr %5, align 8, !tbaa !154
  %47 = getelementptr inbounds nuw %struct.color_info, ptr %46, i32 0, i32 1
  %48 = getelementptr inbounds [3 x i32], ptr %47, i64 0, i64 0
  %49 = load i32, ptr %48, align 4, !tbaa !36
  %50 = load ptr, ptr %6, align 8, !tbaa !154
  %51 = getelementptr inbounds nuw %struct.color_info, ptr %50, i32 0, i32 1
  %52 = getelementptr inbounds [3 x i32], ptr %51, i64 0, i64 0
  %53 = load i32, ptr %52, align 4, !tbaa !36
  %54 = sub nsw i32 %49, %53
  %55 = sext i32 %54 to i64
  store i64 %55, ptr %11, align 8, !tbaa !73
  call void @llvm.lifetime.start.p0(i64 8, ptr %12) #11
  %56 = load ptr, ptr %5, align 8, !tbaa !154
  %57 = getelementptr inbounds nuw %struct.color_info, ptr %56, i32 0, i32 1
  %58 = getelementptr inbounds [3 x i32], ptr %57, i64 0, i64 1
  %59 = load i32, ptr %58, align 4, !tbaa !36
  %60 = load ptr, ptr %6, align 8, !tbaa !154
  %61 = getelementptr inbounds nuw %struct.color_info, ptr %60, i32 0, i32 1
  %62 = getelementptr inbounds [3 x i32], ptr %61, i64 0, i64 1
  %63 = load i32, ptr %62, align 4, !tbaa !36
  %64 = sub nsw i32 %59, %63
  %65 = sext i32 %64 to i64
  store i64 %65, ptr %12, align 8, !tbaa !73
  call void @llvm.lifetime.start.p0(i64 8, ptr %13) #11
  %66 = load ptr, ptr %5, align 8, !tbaa !154
  %67 = getelementptr inbounds nuw %struct.color_info, ptr %66, i32 0, i32 1
  %68 = getelementptr inbounds [3 x i32], ptr %67, i64 0, i64 2
  %69 = load i32, ptr %68, align 4, !tbaa !36
  %70 = load ptr, ptr %6, align 8, !tbaa !154
  %71 = getelementptr inbounds nuw %struct.color_info, ptr %70, i32 0, i32 1
  %72 = getelementptr inbounds [3 x i32], ptr %71, i64 0, i64 2
  %73 = load i32, ptr %72, align 4, !tbaa !36
  %74 = sub nsw i32 %69, %73
  %75 = sext i32 %74 to i64
  store i64 %75, ptr %13, align 8, !tbaa !73
  call void @llvm.lifetime.start.p0(i64 8, ptr %14) #11
  %76 = load i64, ptr %11, align 8, !tbaa !73
  %77 = load i64, ptr %11, align 8, !tbaa !73
  %78 = mul nsw i64 %76, %77
  %79 = load i64, ptr %12, align 8, !tbaa !73
  %80 = load i64, ptr %12, align 8, !tbaa !73
  %81 = mul nsw i64 %79, %80
  %82 = add nsw i64 %78, %81
  %83 = load i64, ptr %13, align 8, !tbaa !73
  %84 = load i64, ptr %13, align 8, !tbaa !73
  %85 = mul nsw i64 %83, %84
  %86 = add nsw i64 %82, %85
  store i64 %86, ptr %14, align 8, !tbaa !73
  %87 = load i64, ptr %14, align 8, !tbaa !73
  %88 = icmp sgt i64 %87, 2147483646
  br i1 %88, label %89, label %90

89:                                               ; preds = %45
  br label %92

90:                                               ; preds = %45
  %91 = load i64, ptr %14, align 8, !tbaa !73
  br label %92

92:                                               ; preds = %90, %89
  %93 = phi i64 [ 2147483646, %89 ], [ %91, %90 ]
  %94 = trunc i64 %93 to i32
  store i32 %94, ptr %4, align 4
  store i32 1, ptr %10, align 4
  call void @llvm.lifetime.end.p0(i64 8, ptr %14) #11
  call void @llvm.lifetime.end.p0(i64 8, ptr %13) #11
  call void @llvm.lifetime.end.p0(i64 8, ptr %12) #11
  call void @llvm.lifetime.end.p0(i64 8, ptr %11) #11
  br label %96

95:                                               ; preds = %40, %35
  store i32 2147483646, ptr %4, align 4
  store i32 1, ptr %10, align 4
  br label %96

96:                                               ; preds = %95, %92, %34
  call void @llvm.lifetime.end.p0(i64 1, ptr %9) #11
  call void @llvm.lifetime.end.p0(i64 1, ptr %8) #11
  %97 = load i32, ptr %4, align 4
  ret i32 %97
}

; Function Attrs: nounwind uwtable
define internal void @colormap_nearest_node(ptr noundef %0, i32 noundef %1, ptr noundef %2, i32 noundef %3, ptr noundef %4) #1 {
  %6 = alloca ptr, align 8
  %7 = alloca i32, align 4
  %8 = alloca ptr, align 8
  %9 = alloca i32, align 4
  %10 = alloca ptr, align 8
  %11 = alloca ptr, align 8
  %12 = alloca i32, align 4
  %13 = alloca i32, align 4
  %14 = alloca ptr, align 8
  %15 = alloca i64, align 8
  %16 = alloca i64, align 8
  store ptr %0, ptr %6, align 8, !tbaa !92
  store i32 %1, ptr %7, align 4, !tbaa !36
  store ptr %2, ptr %8, align 8, !tbaa !154
  store i32 %3, ptr %9, align 4, !tbaa !36
  store ptr %4, ptr %10, align 8, !tbaa !158
  call void @llvm.lifetime.start.p0(i64 8, ptr %11) #11
  %17 = load ptr, ptr %6, align 8, !tbaa !92
  %18 = load i32, ptr %7, align 4, !tbaa !36
  %19 = sext i32 %18 to i64
  %20 = getelementptr inbounds %struct.color_node, ptr %17, i64 %19
  store ptr %20, ptr %11, align 8, !tbaa !92
  call void @llvm.lifetime.start.p0(i64 4, ptr %12) #11
  call void @llvm.lifetime.start.p0(i64 4, ptr %13) #11
  call void @llvm.lifetime.start.p0(i64 8, ptr %14) #11
  %21 = load ptr, ptr %11, align 8, !tbaa !92
  %22 = getelementptr inbounds nuw %struct.color_node, ptr %21, i32 0, i32 0
  store ptr %22, ptr %14, align 8, !tbaa !154
  call void @llvm.lifetime.start.p0(i64 8, ptr %15) #11
  %23 = load ptr, ptr %8, align 8, !tbaa !154
  %24 = load ptr, ptr %14, align 8, !tbaa !154
  %25 = load i32, ptr %9, align 4, !tbaa !36
  %26 = call i32 @diff(ptr noundef %23, ptr noundef %24, i32 noundef %25)
  %27 = sext i32 %26 to i64
  store i64 %27, ptr %15, align 8, !tbaa !73
  %28 = load i64, ptr %15, align 8, !tbaa !73
  %29 = load ptr, ptr %10, align 8, !tbaa !158
  %30 = getelementptr inbounds nuw %struct.nearest_color, ptr %29, i32 0, i32 1
  %31 = load i64, ptr %30, align 8, !tbaa !160
  %32 = icmp slt i64 %28, %31
  br i1 %32, label %33, label %40

33:                                               ; preds = %5
  %34 = load i32, ptr %7, align 4, !tbaa !36
  %35 = load ptr, ptr %10, align 8, !tbaa !158
  %36 = getelementptr inbounds nuw %struct.nearest_color, ptr %35, i32 0, i32 0
  store i32 %34, ptr %36, align 8, !tbaa !156
  %37 = load i64, ptr %15, align 8, !tbaa !73
  %38 = load ptr, ptr %10, align 8, !tbaa !158
  %39 = getelementptr inbounds nuw %struct.nearest_color, ptr %38, i32 0, i32 1
  store i64 %37, ptr %39, align 8, !tbaa !160
  br label %40

40:                                               ; preds = %33, %5
  %41 = load ptr, ptr %11, align 8, !tbaa !92
  %42 = getelementptr inbounds nuw %struct.color_node, ptr %41, i32 0, i32 3
  %43 = load i32, ptr %42, align 4, !tbaa !102
  %44 = icmp ne i32 %43, -1
  br i1 %44, label %50, label %45

45:                                               ; preds = %40
  %46 = load ptr, ptr %11, align 8, !tbaa !92
  %47 = getelementptr inbounds nuw %struct.color_node, ptr %46, i32 0, i32 4
  %48 = load i32, ptr %47, align 4, !tbaa !103
  %49 = icmp ne i32 %48, -1
  br i1 %49, label %50, label %112

50:                                               ; preds = %45, %40
  call void @llvm.lifetime.start.p0(i64 8, ptr %16) #11
  %51 = load ptr, ptr %8, align 8, !tbaa !154
  %52 = getelementptr inbounds nuw %struct.color_info, ptr %51, i32 0, i32 1
  %53 = load ptr, ptr %11, align 8, !tbaa !92
  %54 = getelementptr inbounds nuw %struct.color_node, ptr %53, i32 0, i32 2
  %55 = load i32, ptr %54, align 4, !tbaa !96
  %56 = sext i32 %55 to i64
  %57 = getelementptr inbounds [3 x i32], ptr %52, i64 0, i64 %56
  %58 = load i32, ptr %57, align 4, !tbaa !36
  %59 = load ptr, ptr %14, align 8, !tbaa !154
  %60 = getelementptr inbounds nuw %struct.color_info, ptr %59, i32 0, i32 1
  %61 = load ptr, ptr %11, align 8, !tbaa !92
  %62 = getelementptr inbounds nuw %struct.color_node, ptr %61, i32 0, i32 2
  %63 = load i32, ptr %62, align 4, !tbaa !96
  %64 = sext i32 %63 to i64
  %65 = getelementptr inbounds [3 x i32], ptr %60, i64 0, i64 %64
  %66 = load i32, ptr %65, align 4, !tbaa !36
  %67 = sub nsw i32 %58, %66
  %68 = sext i32 %67 to i64
  store i64 %68, ptr %16, align 8, !tbaa !73
  %69 = load i64, ptr %16, align 8, !tbaa !73
  %70 = icmp sle i64 %69, 0
  br i1 %70, label %71, label %78

71:                                               ; preds = %50
  %72 = load ptr, ptr %11, align 8, !tbaa !92
  %73 = getelementptr inbounds nuw %struct.color_node, ptr %72, i32 0, i32 3
  %74 = load i32, ptr %73, align 4, !tbaa !102
  store i32 %74, ptr %12, align 4, !tbaa !36
  %75 = load ptr, ptr %11, align 8, !tbaa !92
  %76 = getelementptr inbounds nuw %struct.color_node, ptr %75, i32 0, i32 4
  %77 = load i32, ptr %76, align 4, !tbaa !103
  store i32 %77, ptr %13, align 4, !tbaa !36
  br label %85

78:                                               ; preds = %50
  %79 = load ptr, ptr %11, align 8, !tbaa !92
  %80 = getelementptr inbounds nuw %struct.color_node, ptr %79, i32 0, i32 4
  %81 = load i32, ptr %80, align 4, !tbaa !103
  store i32 %81, ptr %12, align 4, !tbaa !36
  %82 = load ptr, ptr %11, align 8, !tbaa !92
  %83 = getelementptr inbounds nuw %struct.color_node, ptr %82, i32 0, i32 3
  %84 = load i32, ptr %83, align 4, !tbaa !102
  store i32 %84, ptr %13, align 4, !tbaa !36
  br label %85

85:                                               ; preds = %78, %71
  %86 = load i32, ptr %12, align 4, !tbaa !36
  %87 = icmp ne i32 %86, -1
  br i1 %87, label %88, label %94

88:                                               ; preds = %85
  %89 = load ptr, ptr %6, align 8, !tbaa !92
  %90 = load i32, ptr %12, align 4, !tbaa !36
  %91 = load ptr, ptr %8, align 8, !tbaa !154
  %92 = load i32, ptr %9, align 4, !tbaa !36
  %93 = load ptr, ptr %10, align 8, !tbaa !158
  call void @colormap_nearest_node(ptr noundef %89, i32 noundef %90, ptr noundef %91, i32 noundef %92, ptr noundef %93)
  br label %94

94:                                               ; preds = %88, %85
  %95 = load i32, ptr %13, align 4, !tbaa !36
  %96 = icmp ne i32 %95, -1
  br i1 %96, label %97, label %111

97:                                               ; preds = %94
  %98 = load i64, ptr %16, align 8, !tbaa !73
  %99 = load i64, ptr %16, align 8, !tbaa !73
  %100 = mul nsw i64 %98, %99
  %101 = load ptr, ptr %10, align 8, !tbaa !158
  %102 = getelementptr inbounds nuw %struct.nearest_color, ptr %101, i32 0, i32 1
  %103 = load i64, ptr %102, align 8, !tbaa !160
  %104 = icmp slt i64 %100, %103
  br i1 %104, label %105, label %111

105:                                              ; preds = %97
  %106 = load ptr, ptr %6, align 8, !tbaa !92
  %107 = load i32, ptr %13, align 4, !tbaa !36
  %108 = load ptr, ptr %8, align 8, !tbaa !154
  %109 = load i32, ptr %9, align 4, !tbaa !36
  %110 = load ptr, ptr %10, align 8, !tbaa !158
  call void @colormap_nearest_node(ptr noundef %106, i32 noundef %107, ptr noundef %108, i32 noundef %109, ptr noundef %110)
  br label %111

111:                                              ; preds = %105, %97, %94
  call void @llvm.lifetime.end.p0(i64 8, ptr %16) #11
  br label %112

112:                                              ; preds = %111, %45
  call void @llvm.lifetime.end.p0(i64 8, ptr %15) #11
  call void @llvm.lifetime.end.p0(i64 8, ptr %14) #11
  call void @llvm.lifetime.end.p0(i64 4, ptr %13) #11
  call void @llvm.lifetime.end.p0(i64 4, ptr %12) #11
  call void @llvm.lifetime.end.p0(i64 8, ptr %11) #11
  ret void
}