; Function Attrs: nofree nosync nounwind memory(argmem: readwrite) uwtable
define internal fastcc void @colormap_nearest_node(ptr noundef readonly captures(none) %0, i32 noundef range(i32 0, -1) %1, ptr noundef nonnull readonly captures(none) %2, i32 noundef %3, ptr noundef nonnull captures(none) %4) unnamed_addr #10 {
  %6 = getelementptr inbounds nuw i8, ptr %4, i64 8
  %7 = getelementptr inbounds nuw i8, ptr %2, i64 4
  %8 = getelementptr inbounds nuw i8, ptr %2, i64 8
  %9 = getelementptr inbounds nuw i8, ptr %2, i64 12
  %.pre47 = load i32, ptr %2, align 4, !tbaa !122
  br label %tailrecurse

tailrecurse:                                      ; preds = %66, %5
  %10 = phi i32 [ %.pre47, %5 ], [ %65, %66 ]
  %.tr43 = phi i32 [ %1, %5 ], [ %.037, %66 ]
  %11 = sext i32 %.tr43 to i64
  %12 = getelementptr inbounds %struct.color_node, ptr %0, i64 %11
  %13 = lshr i32 %10, 24
  %14 = load i32, ptr %12, align 4, !tbaa !122
  %15 = lshr i32 %14, 24
  %16 = icmp slt i32 %13, %3
  %17 = icmp slt i32 %15, %3
  %or.cond.i = select i1 %16, i1 %17, i1 false
  br i1 %or.cond.i, label %diff.exit, label %18

18:                                               ; preds = %tailrecurse
  %or.cond26.i = select i1 %16, i1 true, i1 %17
  br i1 %or.cond26.i, label %diff.exit, label %19

19:                                               ; preds = %18
  %20 = load i32, ptr %7, align 4, !tbaa !33
  %21 = getelementptr inbounds nuw i8, ptr %12, i64 4
  %22 = load i32, ptr %21, align 4, !tbaa !33
  %23 = sub nsw i32 %20, %22
  %24 = sext i32 %23 to i64
  %25 = load i32, ptr %8, align 4, !tbaa !33
  %26 = getelementptr inbounds nuw i8, ptr %12, i64 8
  %27 = load i32, ptr %26, align 4, !tbaa !33
  %28 = sub nsw i32 %25, %27
  %29 = sext i32 %28 to i64
  %30 = load i32, ptr %9, align 4, !tbaa !33
  %31 = getelementptr inbounds nuw i8, ptr %12, i64 12
  %32 = load i32, ptr %31, align 4, !tbaa !33
  %33 = sub nsw i32 %30, %32
  %34 = sext i32 %33 to i64
  %35 = mul nsw i64 %24, %24
  %36 = mul nsw i64 %29, %29
  %37 = add nuw nsw i64 %36, %35
  %38 = mul nsw i64 %34, %34
  %39 = add nuw nsw i64 %37, %38
  %40 = tail call i64 @llvm.umin.i64(i64 %39, i64 2147483646)
  br label %diff.exit

diff.exit:                                        ; preds = %tailrecurse, %18, %19
  %.0.i = phi i64 [ %40, %19 ], [ 0, %tailrecurse ], [ 2147483646, %18 ]
  %41 = load i64, ptr %6, align 8, !tbaa !123
  %42 = icmp sgt i64 %41, %.0.i
  br i1 %42, label %43, label %44

43:                                               ; preds = %diff.exit
  store i32 %.tr43, ptr %4, align 8, !tbaa !116
  store i64 %.0.i, ptr %6, align 8, !tbaa !123
  br label %44

44:                                               ; preds = %43, %diff.exit
  %45 = getelementptr inbounds nuw i8, ptr %12, i64 24
  %46 = load i32, ptr %45, align 4, !tbaa !94
  %.not = icmp eq i32 %46, -1
  br i1 %.not, label %47, label %50

47:                                               ; preds = %44
  %48 = getelementptr inbounds nuw i8, ptr %12, i64 28
  %49 = load i32, ptr %48, align 4, !tbaa !95
  %.not39 = icmp eq i32 %49, -1
  br i1 %.not39, label %70, label %50

50:                                               ; preds = %47, %44
  %51 = getelementptr inbounds nuw i8, ptr %12, i64 20
  %52 = load i32, ptr %51, align 4, !tbaa !89
  %53 = sext i32 %52 to i64
  %54 = getelementptr inbounds [3 x i32], ptr %7, i64 0, i64 %53
  %55 = load i32, ptr %54, align 4, !tbaa !33
  %56 = getelementptr inbounds nuw i8, ptr %12, i64 4
  %57 = getelementptr inbounds [3 x i32], ptr %56, i64 0, i64 %53
  %58 = load i32, ptr %57, align 4, !tbaa !33
  %59 = sub nsw i32 %55, %58
  %60 = sext i32 %59 to i64
  %61 = icmp slt i32 %59, 1
  %62 = getelementptr inbounds nuw i8, ptr %12, i64 28
  %. = select i1 %61, ptr %62, ptr %45
  %.42 = select i1 %61, ptr %45, ptr %62
  %.0 = load i32, ptr %.42, align 4, !tbaa !33
  %.037 = load i32, ptr %., align 4, !tbaa !33
  %.not40 = icmp eq i32 %.0, -1
  br i1 %.not40, label %64, label %63

63:                                               ; preds = %50
  tail call fastcc void @colormap_nearest_node(ptr noundef nonnull %0, i32 noundef %.0, ptr noundef %2, i32 noundef %3, ptr noundef %4)
  %.pre = load i32, ptr %2, align 4, !tbaa !122
  br label %64

64:                                               ; preds = %63, %50
  %65 = phi i32 [ %.pre, %63 ], [ %10, %50 ]
  %.not41 = icmp eq i32 %.037, -1
  br i1 %.not41, label %70, label %66

66:                                               ; preds = %64
  %67 = mul nsw i64 %60, %60
  %68 = load i64, ptr %6, align 8, !tbaa !123
  %69 = icmp slt i64 %67, %68
  br i1 %69, label %tailrecurse, label %70

70:                                               ; preds = %64, %66, %47
  ret void
}